target datalayout = "e-m:e-p270:32:32-p271:32:32-p272:64:64-i64:64-i128:128-f80:128-n8:16:32:64-S128"
target triple = "x86_64-pc-linux-gnu"

@proto_register_beep.ett = internal global [4 x ptr] [ptr @ett_beep, ptr @ett_mime_header, ptr @ett_header, ptr @ett_trailer], align 16
@.str.42 = private unnamed_addr constant [36 x i8] c"Blocks Extensible Exchange Protocol\00", align 1
@.str.43 = private unnamed_addr constant [5 x i8] c"BEEP\00", align 1
@.str.44 = private unnamed_addr constant [5 x i8] c"beep\00", align 1
@proto_beep = internal global i32 0, align 4
@beep_request_hash = internal global ptr null, align 8
@.str.45 = private unnamed_addr constant [5 x i8] c"bxxp\00", align 1
@.str.46 = private unnamed_addr constant [25 x i8] c"strict_header_terminator\00", align 1
@.str.47 = private unnamed_addr constant [26 x i8] c"BEEP Header Requires CRLF\00", align 1
@.str.48 = private unnamed_addr constant [73 x i8] c"Specifies that BEEP requires CRLF as a terminator, and not just CR or LF\00", align 1
@global_beep_strict_term = internal global i8 1, align 1
@beep_handle = internal global ptr null, align 8

; Function Attrs: null_pointer_is_valid sspstrong uwtable
define hidden void @proto_register_beep() #0 {
  %1 = alloca ptr, align 8
  %2 = alloca ptr, align 8
  call void @llvm.lifetime.start.p0(i64 8, ptr %1) #7
  call void @llvm.lifetime.start.p0(i64 8, ptr %2) #7
  %3 = call i32 @proto_register_protocol(ptr noundef @.str.42, ptr noundef @.str.43, ptr noundef @.str.44)
  store i32 %3, ptr @proto_beep, align 4
  %4 = load i32, ptr @proto_beep, align 4
  call void @proto_register_field_array(i32 noundef %4, ptr noundef @proto_register_beep.hf, i32 noundef 17)
  call void @proto_register_subtree_array(ptr noundef @proto_register_beep.ett, i32 noundef 4)
  %5 = load i32, ptr @proto_beep, align 4
  %6 = call ptr @expert_register_protocol(i32 noundef %5)
  store ptr %6, ptr %2, align 8
  %7 = load ptr, ptr %2, align 8
  call void @expert_register_field_array(ptr noundef %7, ptr noundef @proto_register_beep.ei, i32 noundef 4)
  %8 = call ptr @wmem_epan_scope()
  %9 = call ptr @wmem_file_scope()
  %10 = call noalias ptr @wmem_map_new_autoreset(ptr noundef %8, ptr noundef %9, ptr noundef @beep_hash, ptr noundef @beep_equal)
  store ptr %10, ptr @beep_request_hash, align 8
  %11 = load i32, ptr @proto_beep, align 4
  %12 = call ptr @prefs_register_protocol(i32 noundef %11, ptr noundef @apply_beep_prefs)
  store ptr %12, ptr %1, align 8
  %13 = load ptr, ptr %1, align 8
  call void @prefs_register_module_alias(ptr noundef @.str.45, ptr noundef %13)
  %14 = load ptr, ptr %1, align 8
  call void @prefs_register_bool_preference(ptr noundef %14, ptr noundef @.str.46, ptr noundef @.str.47, ptr noundef @.str.48, ptr noundef @global_beep_strict_term)
  %15 = load i32, ptr @proto_beep, align 4
  %16 = call ptr @register_dissector(ptr noundef @.str.44, ptr noundef @dissect_beep, i32 noundef %15)
  store ptr %16, ptr @beep_handle, align 8
  call void @llvm.lifetime.end.p0(i64 8, ptr %2) #7
  call void @llvm.lifetime.end.p0(i64 8, ptr %1) #7
  ret void
}