; Function Attrs: null_pointer_is_valid sspstrong uwtable
define hidden void @proto_register_beep() local_unnamed_addr #0 {
  %1 = tail call i32 @proto_register_protocol(ptr noundef nonnull @.str.42, ptr noundef nonnull @.str.43, ptr noundef nonnull @.str.44)
  store i32 %1, ptr @proto_beep, align 4
  tail call void @proto_register_field_array(i32 noundef %1, ptr noundef nonnull @proto_register_beep.hf, i32 noundef 17)
  tail call void @proto_register_subtree_array(ptr noundef nonnull @proto_register_beep.ett, i32 noundef 4)
  %2 = load i32, ptr @proto_beep, align 4
  %3 = tail call ptr @expert_register_protocol(i32 noundef %2)
  tail call void @expert_register_field_array(ptr noundef %3, ptr noundef nonnull @proto_register_beep.ei, i32 noundef 4)
  %4 = tail call ptr @wmem_epan_scope()
  %5 = tail call ptr @wmem_file_scope()
  %6 = tail call noalias ptr @wmem_map_new_autoreset(ptr noundef %4, ptr noundef %5, ptr noundef nonnull @beep_hash, ptr noundef nonnull @beep_equal)
  store ptr %6, ptr @beep_request_hash, align 8
  %7 = load i32, ptr @proto_beep, align 4
  %8 = tail call ptr @prefs_register_protocol(i32 noundef %7, ptr noundef nonnull @apply_beep_prefs)
  tail call void @prefs_register_module_alias(ptr noundef nonnull @.str.45, ptr noundef %8)
  tail call void @prefs_register_bool_preference(ptr noundef %8, ptr noundef nonnull @.str.46, ptr noundef nonnull @.str.47, ptr noundef nonnull @.str.48, ptr noundef nonnull @global_beep_strict_term)
  %9 = load i32, ptr @proto_beep, align 4
  %10 = tail call ptr @register_dissector(ptr noundef nonnull @.str.44, ptr noundef nonnull @dissect_beep, i32 noundef %9)
  store ptr %10, ptr @beep_handle, align 8
  ret void
}